TN:
SF:/home/giap/ringbuffer/src/ringbuffer.c
FN:15,ringbuffer_init
FN:32,ringbuffer_add
FN:48,ringbuffer_remove
FN:64,ringbuffer_is_full
FN:71,ringbuffer_is_empty
FN:78,ringbuffer_size
FN:85,ringbuffer_cleanup
FNDA:498,ringbuffer_remove
FNDA:16,ringbuffer_is_empty
FNDA:12,ringbuffer_init
FNDA:4,ringbuffer_is_full
FNDA:1229,ringbuffer_add
FNDA:6,ringbuffer_size
FNDA:12,ringbuffer_cleanup
FNF:7
FNH:7
DA:15,12
DA:16,12
DA:18,12
DA:19,0
DA:20,0
DA:21,0
DA:24,12
DA:25,12
DA:26,12
DA:27,12
DA:29,12
DA:32,1229
DA:33,1229
DA:35,1229
DA:37,1229
DA:38,428
DA:39,428
DA:40,428
DA:41,428
DA:44,1229
DA:45,1229
DA:48,498
DA:49,498
DA:51,498
DA:53,498
DA:54,418
DA:55,418
DA:56,418
DA:57,418
DA:60,498
DA:61,498
DA:64,4
DA:65,4
DA:66,4
DA:67,4
DA:68,4
DA:71,16
DA:72,16
DA:73,16
DA:74,16
DA:75,16
DA:78,6
DA:79,6
DA:80,6
DA:81,6
DA:82,6
DA:85,12
DA:86,12
DA:88,12
DA:89,12
DA:90,12
DA:91,12
DA:93,12
DA:94,12
LF:54
LH:51
end_of_record
TN:
SF:/home/giap/ringbuffer/tests/ringbuffer_test.cpp
FN:9,_ZN14RingBufferTest5SetUpEv
FN:13,_ZN14RingBufferTest8TearDownEv
FN:18,_ZN39RingBufferTest_InitialStateIsEmpty_Test8TestBodyEv
FN:18,_ZN39RingBufferTest_InitialStateIsEmpty_TestD0Ev
FN:18,_ZN39RingBufferTest_InitialStateIsEmpty_TestD2Ev
FN:24,_ZN40RingBufferTest_AddAndRemoveElements_TestD2Ev
FN:24,_ZN40RingBufferTest_AddAndRemoveElements_Test8TestBodyEv
FN:24,_ZN40RingBufferTest_AddAndRemoveElements_TestD0Ev
FN:39,_ZN38RingBufferTest_BufferFullBehavior_Test8TestBodyEv
FN:39,_ZN38RingBufferTest_BufferFullBehavior_TestD2Ev
FN:39,_ZN38RingBufferTest_BufferFullBehavior_TestD0Ev
FN:48,_ZN41RingBufferTest_RemoveFromEmptyBuffer_TestD0Ev
FN:48,_ZN41RingBufferTest_RemoveFromEmptyBuffer_TestD2Ev
FN:48,_ZN41RingBufferTest_RemoveFromEmptyBuffer_Test8TestBodyEv
FN:53,_ZN36RingBufferTest_CircularBehavior_TestD0Ev
FN:53,_ZN36RingBufferTest_CircularBehavior_Test8TestBodyEv
FN:53,_ZN36RingBufferTest_CircularBehavior_TestD2Ev
FN:75,_Z8producerii
FN:83,_Z8consumerRSt6vectorIiSaIiEEi
FN:93,_ZN32RingBufferTest_ThreadSafety_Test8TestBodyEv
FN:93,_ZN32RingBufferTest_ThreadSafety_TestD0Ev
FN:93,_ZN32RingBufferTest_ThreadSafety_TestD2Ev
FNDA:2,_ZN38RingBufferTest_BufferFullBehavior_Test8TestBodyEv
FNDA:2,_ZN36RingBufferTest_CircularBehavior_TestD0Ev
FNDA:0,_ZN38RingBufferTest_BufferFullBehavior_TestD2Ev
FNDA:0,_ZN39RingBufferTest_InitialStateIsEmpty_TestD2Ev
FNDA:0,_ZN40RingBufferTest_AddAndRemoveElements_TestD2Ev
FNDA:2,_ZN36RingBufferTest_CircularBehavior_Test8TestBodyEv
FNDA:4,_Z8producerii
FNDA:12,_ZN14RingBufferTest8TearDownEv
FNDA:2,_ZN40RingBufferTest_AddAndRemoveElements_Test8TestBodyEv
FNDA:0,_ZN36RingBufferTest_CircularBehavior_TestD2Ev
FNDA:0,_ZN32RingBufferTest_ThreadSafety_TestD2Ev
FNDA:0,_ZN41RingBufferTest_RemoveFromEmptyBuffer_TestD2Ev
FNDA:2,_ZN32RingBufferTest_ThreadSafety_TestD0Ev
FNDA:2,_Z8consumerRSt6vectorIiSaIiEEi
FNDA:2,_ZN41RingBufferTest_RemoveFromEmptyBuffer_Test8TestBodyEv
FNDA:2,_ZN40RingBufferTest_AddAndRemoveElements_TestD0Ev
FNDA:2,_ZN38RingBufferTest_BufferFullBehavior_TestD0Ev
FNDA:12,_ZN14RingBufferTest5SetUpEv
FNDA:2,_ZN32RingBufferTest_ThreadSafety_Test8TestBodyEv
FNDA:2,_ZN41RingBufferTest_RemoveFromEmptyBuffer_TestD0Ev
FNDA:2,_ZN39RingBufferTest_InitialStateIsEmpty_Test8TestBodyEv
FNDA:2,_ZN39RingBufferTest_InitialStateIsEmpty_TestD0Ev
FNF:22
FNH:16
DA:7,24
DA:9,12
DA:10,12
DA:11,12
DA:13,12
DA:14,12
DA:15,12
DA:18,6
DA:19,2
DA:20,2
DA:21,2
DA:22,2
DA:24,6
DA:25,2
DA:26,2
DA:27,2
DA:29,2
DA:30,2
DA:31,2
DA:32,2
DA:34,2
DA:35,2
DA:36,2
DA:37,2
DA:39,6
DA:40,12
DA:41,20
DA:44,2
DA:45,2
DA:46,2
DA:48,6
DA:49,2
DA:50,2
DA:51,2
DA:53,6
DA:54,12
DA:55,20
DA:58,2
DA:59,2
DA:60,2
DA:62,2
DA:63,2
DA:65,2
DA:66,4
DA:67,12
DA:68,10
DA:69,10
DA:72,4
DA:73,2
DA:75,4
DA:76,404
DA:77,1199
DA:78,799
DA:81,4
DA:83,2
DA:84,2
DA:85,402
DA:86,478
DA:87,78
DA:89,400
DA:91,2
DA:93,6
DA:94,2
DA:95,2
DA:97,2
DA:98,2
DA:99,2
DA:101,2
DA:102,2
DA:103,2
DA:105,2
DA:107,2
DA:109,402
DA:110,800
DA:112,2
LF:75
LH:75
end_of_record
